
lab_6b:     file format elf64-x86-64


Disassembly of section .init:

0000000000401000 <_init>:
  401000:	f3 0f 1e fa          	endbr64 
  401004:	48 83 ec 08          	sub    $0x8,%rsp
  401008:	48 8b 05 e1 2f 00 00 	mov    0x2fe1(%rip),%rax        # 403ff0 <__gmon_start__@Base>
  40100f:	48 85 c0             	test   %rax,%rax
  401012:	74 02                	je     401016 <_init+0x16>
  401014:	ff d0                	call   *%rax
  401016:	48 83 c4 08          	add    $0x8,%rsp
  40101a:	c3                   	ret    

Disassembly of section .plt:

0000000000401020 <printf@plt-0x10>:
  401020:	ff 35 e2 2f 00 00    	push   0x2fe2(%rip)        # 404008 <_GLOBAL_OFFSET_TABLE_+0x8>
  401026:	ff 25 e4 2f 00 00    	jmp    *0x2fe4(%rip)        # 404010 <_GLOBAL_OFFSET_TABLE_+0x10>
  40102c:	0f 1f 40 00          	nopl   0x0(%rax)

0000000000401030 <printf@plt>:
  401030:	ff 25 e2 2f 00 00    	jmp    *0x2fe2(%rip)        # 404018 <printf@GLIBC_2.2.5>
  401036:	68 00 00 00 00       	push   $0x0
  40103b:	e9 e0 ff ff ff       	jmp    401020 <_init+0x20>

0000000000401040 <atoi@plt>:
  401040:	ff 25 da 2f 00 00    	jmp    *0x2fda(%rip)        # 404020 <atoi@GLIBC_2.2.5>
  401046:	68 01 00 00 00       	push   $0x1
  40104b:	e9 d0 ff ff ff       	jmp    401020 <_init+0x20>

Disassembly of section .text:

0000000000401050 <_start>:
  401050:	f3 0f 1e fa          	endbr64 
  401054:	31 ed                	xor    %ebp,%ebp
  401056:	49 89 d1             	mov    %rdx,%r9
  401059:	5e                   	pop    %rsi
  40105a:	48 89 e2             	mov    %rsp,%rdx
  40105d:	48 83 e4 f0          	and    $0xfffffffffffffff0,%rsp
  401061:	50                   	push   %rax
  401062:	54                   	push   %rsp
  401063:	45 31 c0             	xor    %r8d,%r8d
  401066:	31 c9                	xor    %ecx,%ecx
  401068:	48 c7 c7 36 11 40 00 	mov    $0x401136,%rdi
  40106f:	ff 15 6b 2f 00 00    	call   *0x2f6b(%rip)        # 403fe0 <__libc_start_main@GLIBC_2.34>
  401075:	f4                   	hlt    
  401076:	66 2e 0f 1f 84 00 00 	cs nopw 0x0(%rax,%rax,1)
  40107d:	00 00 00 

0000000000401080 <_dl_relocate_static_pie>:
  401080:	f3 0f 1e fa          	endbr64 
  401084:	c3                   	ret    
  401085:	66 2e 0f 1f 84 00 00 	cs nopw 0x0(%rax,%rax,1)
  40108c:	00 00 00 
  40108f:	90                   	nop

0000000000401090 <deregister_tm_clones>:
  401090:	b8 18 41 40 00       	mov    $0x404118,%eax
  401095:	48 3d 18 41 40 00    	cmp    $0x404118,%rax
  40109b:	74 13                	je     4010b0 <deregister_tm_clones+0x20>
  40109d:	48 8b 05 44 2f 00 00 	mov    0x2f44(%rip),%rax        # 403fe8 <_ITM_deregisterTMCloneTable@Base>
  4010a4:	48 85 c0             	test   %rax,%rax
  4010a7:	74 07                	je     4010b0 <deregister_tm_clones+0x20>
  4010a9:	bf 18 41 40 00       	mov    $0x404118,%edi
  4010ae:	ff e0                	jmp    *%rax
  4010b0:	c3                   	ret    
  4010b1:	66 66 2e 0f 1f 84 00 	data16 cs nopw 0x0(%rax,%rax,1)
  4010b8:	00 00 00 00 
  4010bc:	0f 1f 40 00          	nopl   0x0(%rax)

00000000004010c0 <register_tm_clones>:
  4010c0:	be 18 41 40 00       	mov    $0x404118,%esi
  4010c5:	48 81 ee 18 41 40 00 	sub    $0x404118,%rsi
  4010cc:	48 89 f0             	mov    %rsi,%rax
  4010cf:	48 c1 ee 3f          	shr    $0x3f,%rsi
  4010d3:	48 c1 f8 03          	sar    $0x3,%rax
  4010d7:	48 01 c6             	add    %rax,%rsi
  4010da:	48 d1 fe             	sar    %rsi
  4010dd:	74 19                	je     4010f8 <register_tm_clones+0x38>
  4010df:	48 8b 05 12 2f 00 00 	mov    0x2f12(%rip),%rax        # 403ff8 <_ITM_registerTMCloneTable@Base>
  4010e6:	48 85 c0             	test   %rax,%rax
  4010e9:	74 0d                	je     4010f8 <register_tm_clones+0x38>
  4010eb:	bf 18 41 40 00       	mov    $0x404118,%edi
  4010f0:	ff e0                	jmp    *%rax
  4010f2:	66 0f 1f 44 00 00    	nopw   0x0(%rax,%rax,1)
  4010f8:	c3                   	ret    
  4010f9:	0f 1f 80 00 00 00 00 	nopl   0x0(%rax)

0000000000401100 <__do_global_dtors_aux>:
  401100:	f3 0f 1e fa          	endbr64 
  401104:	80 3d 07 30 00 00 00 	cmpb   $0x0,0x3007(%rip)        # 404112 <completed.0>
  40110b:	75 13                	jne    401120 <__do_global_dtors_aux+0x20>
  40110d:	55                   	push   %rbp
  40110e:	48 89 e5             	mov    %rsp,%rbp
  401111:	e8 7a ff ff ff       	call   401090 <deregister_tm_clones>
  401116:	c6 05 f5 2f 00 00 01 	movb   $0x1,0x2ff5(%rip)        # 404112 <completed.0>
  40111d:	5d                   	pop    %rbp
  40111e:	c3                   	ret    
  40111f:	90                   	nop
  401120:	c3                   	ret    
  401121:	66 66 2e 0f 1f 84 00 	data16 cs nopw 0x0(%rax,%rax,1)
  401128:	00 00 00 00 
  40112c:	0f 1f 40 00          	nopl   0x0(%rax)

0000000000401130 <frame_dummy>:
  401130:	f3 0f 1e fa          	endbr64 
  401134:	eb 8a                	jmp    4010c0 <register_tm_clones>

0000000000401136 <main>:
  401136:	55                   	push   %rbp
  401137:	83 ff 04             	cmp    $0x4,%edi
  40113a:	0f 85 19 01 00 00    	jne    401259 <badnum>
  401140:	48 89 f5             	mov    %rsi,%rbp
  401143:	48 8b 7d 08          	mov    0x8(%rbp),%rdi
  401147:	e8 f4 fe ff ff       	call   401040 <atoi@plt>
  40114c:	48 83 f8 00          	cmp    $0x0,%rax
  401150:	0f 8e 03 01 00 00    	jle    401259 <badnum>
  401156:	89 04 25 4b 40 40 00 	mov    %eax,0x40404b
  40115d:	48 8b 7d 10          	mov    0x10(%rbp),%rdi
  401161:	e8 da fe ff ff       	call   401040 <atoi@plt>
  401166:	48 83 f8 00          	cmp    $0x0,%rax
  40116a:	0f 8e e9 00 00 00    	jle    401259 <badnum>
  401170:	89 04 25 4f 40 40 00 	mov    %eax,0x40404f
  401177:	48 8b 7d 18          	mov    0x18(%rbp),%rdi
  40117b:	e8 c0 fe ff ff       	call   401040 <atoi@plt>
  401180:	48 83 f8 00          	cmp    $0x0,%rax
  401184:	0f 8e cf 00 00 00    	jle    401259 <badnum>
  40118a:	89 04 25 57 40 40 00 	mov    %eax,0x404057
  401191:	48 8b 14 25 4b 40 40 	mov    0x40404b,%rdx
  401198:	00 
  401199:	48 8b 0c 25 4f 40 40 	mov    0x40404f,%rcx
  4011a0:	00 
  4011a1:	48 83 e8 03          	sub    $0x3,%rax
  4011a5:	48 83 f8 00          	cmp    $0x0,%rax
  4011a9:	7c 48                	jl     4011f3 <oper_err>
  4011ab:	83 f8 0c             	cmp    $0xc,%eax
  4011ae:	7f 43                	jg     4011f3 <oper_err>
  4011b0:	ff 24 c5 aa 40 40 00 	jmp    *0x4040aa(,%rax,8)

00000000004011b7 <oper_3>:
  4011b7:	48 21 ca             	and    %rcx,%rdx
  4011ba:	48 c7 c1 38 40 40 00 	mov    $0x404038,%rcx
  4011c1:	eb 40                	jmp    401203 <display>

00000000004011c3 <oper_5>:
  4011c3:	48 09 ca             	or     %rcx,%rdx
  4011c6:	48 c7 c1 3c 40 40 00 	mov    $0x40403c,%rcx
  4011cd:	eb 34                	jmp    401203 <display>

00000000004011cf <oper_6>:
  4011cf:	48 31 ca             	xor    %rcx,%rdx
  4011d2:	48 c7 c1 3f 40 40 00 	mov    $0x40403f,%rcx
  4011d9:	eb 28                	jmp    401203 <display>

00000000004011db <oper_10>:
  4011db:	48 01 ca             	add    %rcx,%rdx
  4011de:	48 c7 c1 43 40 40 00 	mov    $0x404043,%rcx
  4011e5:	eb 1c                	jmp    401203 <display>

00000000004011e7 <oper_15>:
  4011e7:	48 29 ca             	sub    %rcx,%rdx
  4011ea:	48 c7 c1 47 40 40 00 	mov    $0x404047,%rcx
  4011f1:	eb 10                	jmp    401203 <display>

00000000004011f3 <oper_err>:
  4011f3:	48 c7 c7 9a 40 40 00 	mov    $0x40409a,%rdi
  4011fa:	b0 00                	mov    $0x0,%al
  4011fc:	e8 2f fe ff ff       	call   401030 <printf@plt>
  401201:	eb 64                	jmp    401267 <theend>

0000000000401203 <display>:
  401203:	48 89 14 25 53 40 40 	mov    %rdx,0x404053
  40120a:	00 
  40120b:	4c 8b 0c 25 4f 40 40 	mov    0x40404f,%r9
  401212:	00 
  401213:	4c 8b 04 25 4f 40 40 	mov    0x40404f,%r8
  40121a:	00 
  40121b:	48 8b 14 25 4b 40 40 	mov    0x40404b,%rdx
  401222:	00 
  401223:	48 8b 34 25 4b 40 40 	mov    0x40404b,%rsi
  40122a:	00 
  40122b:	48 c7 c7 5b 40 40 00 	mov    $0x40405b,%rdi
  401232:	b0 00                	mov    $0x0,%al
  401234:	e8 f7 fd ff ff       	call   401030 <printf@plt>
  401239:	48 8b 14 25 53 40 40 	mov    0x404053,%rdx
  401240:	00 
  401241:	48 8b 34 25 53 40 40 	mov    0x404053,%rsi
  401248:	00 
  401249:	48 c7 c7 79 40 40 00 	mov    $0x404079,%rdi
  401250:	b0 00                	mov    $0x0,%al
  401252:	e8 d9 fd ff ff       	call   401030 <printf@plt>
  401257:	eb 0e                	jmp    401267 <theend>

0000000000401259 <badnum>:
  401259:	48 c7 c7 86 40 40 00 	mov    $0x404086,%rdi
  401260:	b0 00                	mov    $0x0,%al
  401262:	e8 c9 fd ff ff       	call   401030 <printf@plt>

0000000000401267 <theend>:
  401267:	5d                   	pop    %rbp
  401268:	c3                   	ret    

Disassembly of section .fini:

000000000040126c <_fini>:
  40126c:	f3 0f 1e fa          	endbr64 
  401270:	48 83 ec 08          	sub    $0x8,%rsp
  401274:	48 83 c4 08          	add    $0x8,%rsp
  401278:	c3                   	ret    
